target datalayout = "e-m:e-p270:32:32-p271:32:32-p272:64:64-i64:64-i128:128-f80:128-n8:16:32:64-S128"
target triple = "x86_64-pc-linux-gnu"

%struct.btsnoop_hdr = type { i32, i32 }
%struct.wtap = type { ptr, ptr, i8, i32, i32, ptr, ptr, ptr, i32, ptr, ptr, ptr, ptr, ptr, ptr, ptr, ptr, ptr, ptr, i32, i32, ptr, ptr, ptr, ptr }

@btsnoop_magic = internal constant [8 x i8] c"btsnoop\00", align 1
@.str = private unnamed_addr constant [32 x i8] c"btsnoop: version %u unsupported\00", align 1
@.str.1 = private unnamed_addr constant [39 x i8] c"btsnoop: BCSP capture logs unsupported\00", align 1
@.str.2 = private unnamed_addr constant [37 x i8] c"btsnoop: H5 capture logs unsupported\00", align 1
@.str.3 = private unnamed_addr constant [52 x i8] c"btsnoop: BlueZ 5 Simulator capture logs unsupported\00", align 1
@.str.4 = private unnamed_addr constant [49 x i8] c"btsnoop: datalink type %u unknown or unsupported\00", align 1
@btsnoop_file_type_subtype = internal global i32 -1, align 4

; Function Attrs: null_pointer_is_valid sspstrong uwtable
define hidden i32 @btsnoop_open(ptr noundef %0, ptr noundef %1, ptr noundef %2) #0 {
  %4 = alloca i32, align 4
  %5 = alloca ptr, align 8
  %6 = alloca ptr, align 8
  %7 = alloca ptr, align 8
  %8 = alloca [8 x i8], align 1
  %9 = alloca %struct.btsnoop_hdr, align 4
  %10 = alloca i32, align 4
  %11 = alloca i32, align 4
  %12 = alloca i32, align 4
  %13 = alloca i32, align 4
  %14 = alloca i32, align 4
  %15 = alloca i32, align 4
  %16 = alloca i32, align 4
  %17 = alloca i32, align 4
  store ptr %0, ptr %5, align 8
  store ptr %1, ptr %6, align 8
  store ptr %2, ptr %7, align 8
  call void @llvm.lifetime.start.p0(i64 8, ptr %8) #6
  call void @llvm.lifetime.start.p0(i64 8, ptr %9) #6
  call void @llvm.lifetime.start.p0(i64 4, ptr %10) #6
  store i32 0, ptr %10, align 4
  %18 = load ptr, ptr %5, align 8
  %19 = getelementptr inbounds nuw %struct.wtap, ptr %18, i32 0, i32 0
  %20 = load ptr, ptr %19, align 8
  %21 = getelementptr inbounds [8 x i8], ptr %8, i64 0, i64 0
  %22 = load ptr, ptr %6, align 8
  %23 = load ptr, ptr %7, align 8
  %24 = call zeroext i1 @wtap_read_bytes(ptr noundef %20, ptr noundef %21, i32 noundef 8, ptr noundef %22, ptr noundef %23)
  br i1 %24, label %31, label %25

25:                                               ; preds = %3
  %26 = load ptr, ptr %6, align 8
  %27 = load i32, ptr %26, align 4
  %28 = icmp ne i32 %27, -12
  br i1 %28, label %29, label %30

29:                                               ; preds = %25
  store i32 -1, ptr %4, align 4
  store i32 1, ptr %11, align 4
  br label %148

30:                                               ; preds = %25
  store i32 0, ptr %4, align 4
  store i32 1, ptr %11, align 4
  br label %148

31:                                               ; preds = %3
  %32 = getelementptr inbounds [8 x i8], ptr %8, i64 0, i64 0
  %33 = call i32 @memcmp(ptr noundef %32, ptr noundef @btsnoop_magic, i64 noundef 8) #7
  %34 = icmp ne i32 %33, 0
  br i1 %34, label %35, label %36

35:                                               ; preds = %31
  store i32 0, ptr %4, align 4
  store i32 1, ptr %11, align 4
  br label %148

36:                                               ; preds = %31
  %37 = load ptr, ptr %5, align 8
  %38 = getelementptr inbounds nuw %struct.wtap, ptr %37, i32 0, i32 0
  %39 = load ptr, ptr %38, align 8
  %40 = load ptr, ptr %6, align 8
  %41 = load ptr, ptr %7, align 8
  %42 = call zeroext i1 @wtap_read_bytes(ptr noundef %39, ptr noundef %9, i32 noundef 8, ptr noundef %40, ptr noundef %41)
  br i1 %42, label %44, label %43

43:                                               ; preds = %36
  store i32 -1, ptr %4, align 4
  store i32 1, ptr %11, align 4
  br label %148

44:                                               ; preds = %36
  call void @llvm.lifetime.start.p0(i64 4, ptr %12) #6
  call void @llvm.lifetime.start.p0(i64 4, ptr %13) #6
  %45 = getelementptr inbounds nuw %struct.btsnoop_hdr, ptr %9, i32 0, i32 0
  %46 = load i32, ptr %45, align 4
  store i32 %46, ptr %13, align 4
  %47 = load i32, ptr %13, align 4
  %48 = call i1 @llvm.is.constant.i32(i32 %47)
  br i1 %48, label %49, label %65

49:                                               ; preds = %44
  %50 = load i32, ptr %13, align 4
  %51 = and i32 %50, 255
  %52 = shl i32 %51, 24
  %53 = load i32, ptr %13, align 4
  %54 = and i32 %53, 65280
  %55 = shl i32 %54, 8
  %56 = or i32 %52, %55
  %57 = load i32, ptr %13, align 4
  %58 = and i32 %57, 16711680
  %59 = lshr i32 %58, 8
  %60 = or i32 %56, %59
  %61 = load i32, ptr %13, align 4
  %62 = and i32 %61, -16777216
  %63 = lshr i32 %62, 24
  %64 = or i32 %60, %63
  store i32 %64, ptr %12, align 4
  br label %68

65:                                               ; preds = %44
  %66 = load i32, ptr %13, align 4
  %67 = call i32 asm "bswapl $0", "=r,0,~{dirflag},~{fpsr},~{flags}"(i32 %66) #8, !srcloc !6
  store i32 %67, ptr %12, align 4
  br label %68

68:                                               ; preds = %65, %49
  %69 = load i32, ptr %12, align 4
  store i32 %69, ptr %14, align 4
  call void @llvm.lifetime.end.p0(i64 4, ptr %13) #6
  call void @llvm.lifetime.end.p0(i64 4, ptr %12) #6
  %70 = load i32, ptr %14, align 4
  %71 = getelementptr inbounds nuw %struct.btsnoop_hdr, ptr %9, i32 0, i32 0
  store i32 %70, ptr %71, align 4
  %72 = getelementptr inbounds nuw %struct.btsnoop_hdr, ptr %9, i32 0, i32 0
  %73 = load i32, ptr %72, align 4
  %74 = icmp ne i32 %73, 1
  br i1 %74, label %75, label %81

75:                                               ; preds = %68
  %76 = load ptr, ptr %6, align 8
  store i32 -4, ptr %76, align 4
  %77 = getelementptr inbounds nuw %struct.btsnoop_hdr, ptr %9, i32 0, i32 0
  %78 = load i32, ptr %77, align 4
  %79 = call noalias ptr (ptr, ptr, ...) @wmem_strdup_printf(ptr noundef null, ptr noundef @.str, i32 noundef %78)
  %80 = load ptr, ptr %7, align 8
  store ptr %79, ptr %80, align 8
  store i32 -1, ptr %4, align 4
  store i32 1, ptr %11, align 4
  br label %148

81:                                               ; preds = %68
  call void @llvm.lifetime.start.p0(i64 4, ptr %15) #6
  call void @llvm.lifetime.start.p0(i64 4, ptr %16) #6
  %82 = getelementptr inbounds nuw %struct.btsnoop_hdr, ptr %9, i32 0, i32 1
  %83 = load i32, ptr %82, align 4
  store i32 %83, ptr %16, align 4
  %84 = load i32, ptr %16, align 4
  %85 = call i1 @llvm.is.constant.i32(i32 %84)
  br i1 %85, label %86, label %102

86:                                               ; preds = %81
  %87 = load i32, ptr %16, align 4
  %88 = and i32 %87, 255
  %89 = shl i32 %88, 24
  %90 = load i32, ptr %16, align 4
  %91 = and i32 %90, 65280
  %92 = shl i32 %91, 8
  %93 = or i32 %89, %92
  %94 = load i32, ptr %16, align 4
  %95 = and i32 %94, 16711680
  %96 = lshr i32 %95, 8
  %97 = or i32 %93, %96
  %98 = load i32, ptr %16, align 4
  %99 = and i32 %98, -16777216
  %100 = lshr i32 %99, 24
  %101 = or i32 %97, %100
  store i32 %101, ptr %15, align 4
  br label %105

102:                                              ; preds = %81
  %103 = load i32, ptr %16, align 4
  %104 = call i32 asm "bswapl $0", "=r,0,~{dirflag},~{fpsr},~{flags}"(i32 %103) #8, !srcloc !7
  store i32 %104, ptr %15, align 4
  br label %105

105:                                              ; preds = %102, %86
  %106 = load i32, ptr %15, align 4
  store i32 %106, ptr %17, align 4
  call void @llvm.lifetime.end.p0(i64 4, ptr %16) #6
  call void @llvm.lifetime.end.p0(i64 4, ptr %15) #6
  %107 = load i32, ptr %17, align 4
  %108 = getelementptr inbounds nuw %struct.btsnoop_hdr, ptr %9, i32 0, i32 1
  store i32 %107, ptr %108, align 4
  %109 = getelementptr inbounds nuw %struct.btsnoop_hdr, ptr %9, i32 0, i32 1
  %110 = load i32, ptr %109, align 4
  switch i32 %110, label %126 [
    i32 1001, label %111
    i32 1002, label %112
    i32 1003, label %113
    i32 1004, label %117
    i32 2001, label %121
    i32 2002, label %122
  ]

111:                                              ; preds = %105
  store i32 102, ptr %10, align 4
  br label %132

112:                                              ; preds = %105
  store i32 99, ptr %10, align 4
  br label %132

113:                                              ; preds = %105
  %114 = load ptr, ptr %6, align 8
  store i32 -4, ptr %114, align 4
  %115 = call noalias ptr @g_strdup(ptr noundef @.str.1)
  %116 = load ptr, ptr %7, align 8
  store ptr %115, ptr %116, align 8
  store i32 -1, ptr %4, align 4
  store i32 1, ptr %11, align 4
  br label %148

117:                                              ; preds = %105
  %118 = load ptr, ptr %6, align 8
  store i32 -4, ptr %118, align 4
  %119 = call noalias ptr @g_strdup(ptr noundef @.str.2)
  %120 = load ptr, ptr %7, align 8
  store ptr %119, ptr %120, align 8
  store i32 -1, ptr %4, align 4
  store i32 1, ptr %11, align 4
  br label %148

121:                                              ; preds = %105
  store i32 159, ptr %10, align 4
  br label %132

122:                                              ; preds = %105
  %123 = load ptr, ptr %6, align 8
  store i32 -4, ptr %123, align 4
  %124 = call noalias ptr @g_strdup(ptr noundef @.str.3)
  %125 = load ptr, ptr %7, align 8
  store ptr %124, ptr %125, align 8
  store i32 -1, ptr %4, align 4
  store i32 1, ptr %11, align 4
  br label %148

126:                                              ; preds = %105
  %127 = load ptr, ptr %6, align 8
  store i32 -4, ptr %127, align 4
  %128 = getelementptr inbounds nuw %struct.btsnoop_hdr, ptr %9, i32 0, i32 1
  %129 = load i32, ptr %128, align 4
  %130 = call noalias ptr (ptr, ptr, ...) @wmem_strdup_printf(ptr noundef null, ptr noundef @.str.4, i32 noundef %129)
  %131 = load ptr, ptr %7, align 8
  store ptr %130, ptr %131, align 8
  store i32 -1, ptr %4, align 4
  store i32 1, ptr %11, align 4
  br label %148

132:                                              ; preds = %121, %112, %111
  %133 = load ptr, ptr %5, align 8
  %134 = getelementptr inbounds nuw %struct.wtap, ptr %133, i32 0, i32 15
  store ptr @btsnoop_read, ptr %134, align 8
  %135 = load ptr, ptr %5, align 8
  %136 = getelementptr inbounds nuw %struct.wtap, ptr %135, i32 0, i32 16
  store ptr @btsnoop_seek_read, ptr %136, align 8
  %137 = load i32, ptr %10, align 4
  %138 = load ptr, ptr %5, align 8
  %139 = getelementptr inbounds nuw %struct.wtap, ptr %138, i32 0, i32 19
  store i32 %137, ptr %139, align 8
  %140 = load ptr, ptr %5, align 8
  %141 = getelementptr inbounds nuw %struct.wtap, ptr %140, i32 0, i32 4
  store i32 0, ptr %141, align 8
  %142 = load ptr, ptr %5, align 8
  %143 = getelementptr inbounds nuw %struct.wtap, ptr %142, i32 0, i32 20
  store i32 6, ptr %143, align 4
  %144 = load i32, ptr @btsnoop_file_type_subtype, align 4
  %145 = load ptr, ptr %5, align 8
  %146 = getelementptr inbounds nuw %struct.wtap, ptr %145, i32 0, i32 3
  store i32 %144, ptr %146, align 4
  %147 = load ptr, ptr %5, align 8
  call void @wtap_add_generated_idb(ptr noundef %147)
  store i32 1, ptr %4, align 4
  store i32 1, ptr %11, align 4
  br label %148

148:                                              ; preds = %132, %126, %122, %117, %113, %75, %43, %35, %30, %29
  call void @llvm.lifetime.end.p0(i64 4, ptr %10) #6
  call void @llvm.lifetime.end.p0(i64 8, ptr %9) #6
  call void @llvm.lifetime.end.p0(i64 8, ptr %8) #6
  %149 = load i32, ptr %4, align 4
  ret i32 %149
}