; Function Attrs: null_pointer_is_valid sspstrong uwtable
define hidden range(i32 -1, 2) i32 @btsnoop_open(ptr noundef %0, ptr noundef %1, ptr noundef %2) local_unnamed_addr #0 {
  %4 = alloca [8 x i8], align 1
  %5 = alloca %struct.btsnoop_hdr, align 4
  call void @llvm.lifetime.start.p0(i64 8, ptr nonnull %4) #5
  call void @llvm.lifetime.start.p0(i64 8, ptr nonnull %5) #5
  %6 = load ptr, ptr %0, align 8
  %7 = call zeroext i1 @wtap_read_bytes(ptr noundef %6, ptr noundef nonnull %4, i32 noundef 8, ptr noundef %1, ptr noundef %2)
  br i1 %7, label %10, label %8

8:                                                ; preds = %3
  %9 = load i32, ptr %1, align 4
  %.not = icmp ne i32 %9, -12
  %. = sext i1 %.not to i32
  br label %41

10:                                               ; preds = %3
  %bcmp = call i32 @bcmp(ptr noundef nonnull dereferenceable(8) %4, ptr noundef nonnull dereferenceable(8) @.str.8, i64 8)
  %.not44 = icmp eq i32 %bcmp, 0
  br i1 %.not44, label %11, label %41

11:                                               ; preds = %10
  %12 = load ptr, ptr %0, align 8
  %13 = call zeroext i1 @wtap_read_bytes(ptr noundef %12, ptr noundef nonnull %5, i32 noundef 8, ptr noundef %1, ptr noundef %2)
  br i1 %13, label %14, label %41

14:                                               ; preds = %11
  %15 = load i32, ptr %5, align 4
  %16 = call i32 asm "bswapl $0", "=r,0,~{dirflag},~{fpsr},~{flags}"(i32 %15) #6, !srcloc !6
  store i32 %16, ptr %5, align 4
  %.not45 = icmp eq i32 %16, 1
  br i1 %.not45, label %19, label %17

17:                                               ; preds = %14
  store i32 -4, ptr %1, align 4
  %18 = call noalias ptr (ptr, ptr, ...) @wmem_strdup_printf(ptr noundef null, ptr noundef nonnull @.str, i32 noundef %16)
  store ptr %18, ptr %2, align 8
  br label %41

19:                                               ; preds = %14
  %20 = getelementptr inbounds nuw i8, ptr %5, i64 4
  %21 = load i32, ptr %20, align 4
  %22 = call i32 asm "bswapl $0", "=r,0,~{dirflag},~{fpsr},~{flags}"(i32 %21) #6, !srcloc !7
  store i32 %22, ptr %20, align 4
  switch i32 %22, label %31 [
    i32 1001, label %33
    i32 1002, label %23
    i32 1003, label %24
    i32 1004, label %26
    i32 2001, label %28
    i32 2002, label %29
  ]

23:                                               ; preds = %19
  br label %33

24:                                               ; preds = %19
  store i32 -4, ptr %1, align 4
  %25 = call noalias ptr @g_strdup(ptr noundef nonnull @.str.1)
  store ptr %25, ptr %2, align 8
  br label %41

26:                                               ; preds = %19
  store i32 -4, ptr %1, align 4
  %27 = call noalias ptr @g_strdup(ptr noundef nonnull @.str.2)
  store ptr %27, ptr %2, align 8
  br label %41

28:                                               ; preds = %19
  br label %33

29:                                               ; preds = %19
  store i32 -4, ptr %1, align 4
  %30 = call noalias ptr @g_strdup(ptr noundef nonnull @.str.3)
  store ptr %30, ptr %2, align 8
  br label %41

31:                                               ; preds = %19
  store i32 -4, ptr %1, align 4
  %32 = call noalias ptr (ptr, ptr, ...) @wmem_strdup_printf(ptr noundef null, ptr noundef nonnull @.str.4, i32 noundef %22)
  store ptr %32, ptr %2, align 8
  br label %41

33:                                               ; preds = %19, %28, %23
  %.041 = phi i32 [ 159, %28 ], [ 99, %23 ], [ 102, %19 ]
  %34 = getelementptr inbounds nuw i8, ptr %0, i64 112
  store ptr @btsnoop_read, ptr %34, align 8
  %35 = getelementptr inbounds nuw i8, ptr %0, i64 120
  store ptr @btsnoop_seek_read, ptr %35, align 8
  %36 = getelementptr inbounds nuw i8, ptr %0, i64 144
  store i32 %.041, ptr %36, align 8
  %37 = getelementptr inbounds nuw i8, ptr %0, i64 24
  store i32 0, ptr %37, align 8
  %38 = getelementptr inbounds nuw i8, ptr %0, i64 148
  store i32 6, ptr %38, align 4
  %39 = load i32, ptr @btsnoop_file_type_subtype, align 4
  %40 = getelementptr inbounds nuw i8, ptr %0, i64 20
  store i32 %39, ptr %40, align 4
  call void @wtap_add_generated_idb(ptr noundef %0)
  br label %41

41:                                               ; preds = %11, %10, %8, %33, %31, %29, %26, %24, %17
  %.0 = phi i32 [ -1, %17 ], [ -1, %31 ], [ -1, %29 ], [ 1, %33 ], [ -1, %26 ], [ -1, %24 ], [ %., %8 ], [ 0, %10 ], [ -1, %11 ]
  call void @llvm.lifetime.end.p0(i64 8, ptr nonnull %5) #5
  call void @llvm.lifetime.end.p0(i64 8, ptr nonnull %4) #5
  ret i32 %.0
}